target datalayout = "e-m:e-p270:32:32-p271:32:32-p272:64:64-i64:64-i128:128-f80:128-n8:16:32:64-S128"
target triple = "x86_64-pc-linux-gnu"

%struct.expert_field = type { i32, i32 }
%struct._packet_info = type { ptr, ptr, i32, i32, %struct.nstime_t, %struct.nstime_t, %struct.nstime_t, i8, ptr, ptr, ptr, ptr, %struct._address, %struct._address, %struct._address, %struct._address, %struct._address, %struct._address, i32, ptr, i8, [3 x i8], %struct.anon, i32, i32, i32, i32, ptr, i8, ptr, ptr, i16, i16, i32, i32, i16, i32, i32, ptr, ptr, ptr, i8, i8, i16, i16, i16, i32, i16, i16, ptr, ptr, ptr, ptr, ptr, i32, i32 }
%struct.nstime_t = type { i64, i32 }
%struct._address = type { i32, i32, ptr, ptr }
%struct.anon = type { i8, [3 x i8] }

@hf_olsr_ansn = internal global i32 0, align 4
@hf_olsr_neighbor_addr = internal global i32 0, align 4
@hf_olsr_neighbor6_addr = internal global i32 0, align 4
@ei_olsr_not_enough_bytes = internal global %struct.expert_field zeroinitializer, align 4
@.str.128 = private unnamed_addr constant [24 x i8] c"Not enough bytes for TC\00", align 1
@.str.129 = private unnamed_addr constant [35 x i8] c"Not enough bytes for last neighbor\00", align 1

; Function Attrs: null_pointer_is_valid sspstrong uwtable
define internal i32 @dissect_olsr_tc(ptr noundef %0, ptr noundef %1, ptr noundef %2, i32 noundef %3, i32 noundef %4) #0 {
  %6 = alloca i32, align 4
  %7 = alloca ptr, align 8
  %8 = alloca ptr, align 8
  %9 = alloca ptr, align 8
  %10 = alloca i32, align 4
  %11 = alloca i32, align 4
  store ptr %0, ptr %7, align 8
  store ptr %1, ptr %8, align 8
  store ptr %2, ptr %9, align 8
  store i32 %3, ptr %10, align 4
  store i32 %4, ptr %11, align 4
  %12 = load i32, ptr %11, align 4
  %13 = load i32, ptr %10, align 4
  %14 = sub i32 %12, %13
  %15 = icmp slt i32 %14, 4
  br i1 %15, label %16, label %26

16:                                               ; preds = %5
  %17 = load ptr, ptr %9, align 8
  %18 = load ptr, ptr %8, align 8
  %19 = load ptr, ptr %7, align 8
  %20 = load i32, ptr %10, align 4
  %21 = load i32, ptr %11, align 4
  %22 = load i32, ptr %10, align 4
  %23 = sub i32 %21, %22
  %24 = call ptr (ptr, ptr, ptr, ptr, i32, i32, ptr, ...) @proto_tree_add_expert_format(ptr noundef %17, ptr noundef %18, ptr noundef @ei_olsr_not_enough_bytes, ptr noundef %19, i32 noundef %20, i32 noundef %23, ptr noundef @.str.128)
  %25 = load i32, ptr %11, align 4
  store i32 %25, ptr %6, align 4
  br label %90

26:                                               ; preds = %5
  %27 = load ptr, ptr %9, align 8
  %28 = load i32, ptr @hf_olsr_ansn, align 4
  %29 = load ptr, ptr %7, align 8
  %30 = load i32, ptr %10, align 4
  %31 = call ptr @proto_tree_add_item(ptr noundef %27, i32 noundef %28, ptr noundef %29, i32 noundef %30, i32 noundef 2, i32 noundef 0)
  %32 = load i32, ptr %10, align 4
  %33 = add i32 %32, 4
  store i32 %33, ptr %10, align 4
  br label %34

34:                                               ; preds = %87, %26
  %35 = load i32, ptr %10, align 4
  %36 = load i32, ptr %11, align 4
  %37 = icmp slt i32 %35, %36
  br i1 %37, label %38, label %88

38:                                               ; preds = %34
  %39 = load i32, ptr %11, align 4
  %40 = load i32, ptr %10, align 4
  %41 = sub i32 %39, %40
  %42 = load ptr, ptr %8, align 8
  %43 = getelementptr inbounds nuw %struct._packet_info, ptr %42, i32 0, i32 16
  %44 = getelementptr inbounds nuw %struct._address, ptr %43, i32 0, i32 1
  %45 = load i32, ptr %44, align 4
  %46 = icmp slt i32 %41, %45
  br i1 %46, label %47, label %57

47:                                               ; preds = %38
  %48 = load ptr, ptr %9, align 8
  %49 = load ptr, ptr %8, align 8
  %50 = load ptr, ptr %7, align 8
  %51 = load i32, ptr %10, align 4
  %52 = load i32, ptr %11, align 4
  %53 = load i32, ptr %10, align 4
  %54 = sub i32 %52, %53
  %55 = call ptr (ptr, ptr, ptr, ptr, i32, i32, ptr, ...) @proto_tree_add_expert_format(ptr noundef %48, ptr noundef %49, ptr noundef @ei_olsr_not_enough_bytes, ptr noundef %50, i32 noundef %51, i32 noundef %54, ptr noundef @.str.129)
  %56 = load i32, ptr %11, align 4
  store i32 %56, ptr %6, align 4
  br label %90

57:                                               ; preds = %38
  %58 = load ptr, ptr %8, align 8
  %59 = getelementptr inbounds nuw %struct._packet_info, ptr %58, i32 0, i32 16
  %60 = getelementptr inbounds nuw %struct._address, ptr %59, i32 0, i32 0
  %61 = load i32, ptr %60, align 8
  %62 = icmp eq i32 %61, 2
  br i1 %62, label %63, label %71

63:                                               ; preds = %57
  %64 = load ptr, ptr %9, align 8
  %65 = load i32, ptr @hf_olsr_neighbor_addr, align 4
  %66 = load ptr, ptr %7, align 8
  %67 = load i32, ptr %10, align 4
  %68 = call ptr @proto_tree_add_item(ptr noundef %64, i32 noundef %65, ptr noundef %66, i32 noundef %67, i32 noundef 4, i32 noundef 0)
  %69 = load i32, ptr %10, align 4
  %70 = add i32 %69, 4
  store i32 %70, ptr %10, align 4
  br label %87

71:                                               ; preds = %57
  %72 = load ptr, ptr %8, align 8
  %73 = getelementptr inbounds nuw %struct._packet_info, ptr %72, i32 0, i32 16
  %74 = getelementptr inbounds nuw %struct._address, ptr %73, i32 0, i32 0
  %75 = load i32, ptr %74, align 8
  %76 = icmp eq i32 %75, 3
  br i1 %76, label %77, label %85

77:                                               ; preds = %71
  %78 = load ptr, ptr %9, align 8
  %79 = load i32, ptr @hf_olsr_neighbor6_addr, align 4
  %80 = load ptr, ptr %7, align 8
  %81 = load i32, ptr %10, align 4
  %82 = call ptr @proto_tree_add_item(ptr noundef %78, i32 noundef %79, ptr noundef %80, i32 noundef %81, i32 noundef 16, i32 noundef 0)
  %83 = load i32, ptr %10, align 4
  %84 = add i32 %83, 16
  store i32 %84, ptr %10, align 4
  br label %86

85:                                               ; preds = %71
  br label %88

86:                                               ; preds = %77
  br label %87

87:                                               ; preds = %86, %63
  br label %34, !llvm.loop !11

88:                                               ; preds = %85, %34
  %89 = load i32, ptr %11, align 4
  store i32 %89, ptr %6, align 4
  br label %90

90:                                               ; preds = %88, %47, %16
  %91 = load i32, ptr %6, align 4
  ret i32 %91
}