; Function Attrs: null_pointer_is_valid sspstrong uwtable
define internal fastcc noundef range(i32 17, 65536) i32 @dissect_olsr_tc(ptr noundef %0, ptr noundef %1, ptr noundef %2, i32 noundef range(i32 16, 65535) %3, i32 noundef returned range(i32 17, 65536) %4) unnamed_addr #0 {
  %6 = sub nsw i32 %4, %3
  %7 = icmp slt i32 %6, 4
  br i1 %7, label %8, label %10

8:                                                ; preds = %5
  %9 = tail call ptr (ptr, ptr, ptr, ptr, i32, i32, ptr, ...) @proto_tree_add_expert_format(ptr noundef %2, ptr noundef %1, ptr noundef nonnull @ei_olsr_not_enough_bytes, ptr noundef %0, i32 noundef %3, i32 noundef %6, ptr noundef nonnull @.str.128)
  br label %.loopexit

10:                                               ; preds = %5
  %11 = load i32, ptr @hf_olsr_ansn, align 4
  %12 = tail call ptr @proto_tree_add_item(ptr noundef %2, i32 noundef %11, ptr noundef %0, i32 noundef %3, i32 noundef 2, i32 noundef 0)
  %13 = add nuw nsw i32 %3, 4
  %14 = icmp samesign ult i32 %13, %4
  br i1 %14, label %.lr.ph, label %.loopexit

.lr.ph:                                           ; preds = %10
  %15 = getelementptr inbounds nuw i8, ptr %1, i64 212
  %16 = getelementptr inbounds nuw i8, ptr %1, i64 208
  br label %17

17:                                               ; preds = %.lr.ph, %26
  %.03641 = phi i32 [ %13, %.lr.ph ], [ %29, %26 ]
  %18 = sub nsw i32 %4, %.03641
  %19 = load i32, ptr %15, align 4
  %20 = icmp slt i32 %18, %19
  br i1 %20, label %21, label %23

21:                                               ; preds = %17
  %22 = tail call ptr (ptr, ptr, ptr, ptr, i32, i32, ptr, ...) @proto_tree_add_expert_format(ptr noundef %2, ptr noundef %1, ptr noundef nonnull @ei_olsr_not_enough_bytes, ptr noundef %0, i32 noundef %.03641, i32 noundef %18, ptr noundef nonnull @.str.129)
  br label %.loopexit

23:                                               ; preds = %17
  %24 = load i32, ptr %16, align 8
  switch i32 %24, label %.loopexit [
    i32 2, label %26
    i32 3, label %25
  ]

25:                                               ; preds = %23
  br label %26

26:                                               ; preds = %23, %25
  %hf_olsr_neighbor6_addr.sink = phi ptr [ @hf_olsr_neighbor6_addr, %25 ], [ @hf_olsr_neighbor_addr, %23 ]
  %.sink48 = phi i32 [ 16, %25 ], [ 4, %23 ]
  %27 = load i32, ptr %hf_olsr_neighbor6_addr.sink, align 4
  %28 = tail call ptr @proto_tree_add_item(ptr noundef %2, i32 noundef %27, ptr noundef %0, i32 noundef %.03641, i32 noundef %.sink48, i32 noundef 0)
  %29 = add nuw nsw i32 %.03641, %.sink48
  %30 = icmp samesign ult i32 %29, %4
  br i1 %30, label %17, label %.loopexit, !llvm.loop !10

.loopexit:                                        ; preds = %23, %26, %10, %21, %8
  ret i32 %4
}